; Function Attrs: mustprogress uwtable
define void @_ZN8facebook5velox9RowVector15prepareForReuseEv(ptr noundef nonnull align 8 dereferenceable(138) %this) unnamed_addr #0 align 2 {
entry:
  tail call void @_ZN8facebook5velox10BaseVector15prepareForReuseEv(ptr noundef nonnull align 8 dereferenceable(99) %this)
  %children_ = getelementptr inbounds i8, ptr %this, i64 112
  %0 = load ptr, ptr %children_, align 8
  %_M_finish.i = getelementptr inbounds i8, ptr %this, i64 120
  %1 = load ptr, ptr %_M_finish.i, align 8
  %cmp.i.not6 = icmp eq ptr %0, %1
  br i1 %cmp.i.not6, label %for.end.thread, label %for.body

for.end.thread:                                   ; preds = %entry
  %childrenLoaded_.i9 = getelementptr inbounds i8, ptr %this, i64 137
  store i8 0, ptr %childrenLoaded_.i9, align 1
  %containsLazyNotLoaded_.i10 = getelementptr inbounds i8, ptr %this, i64 136
  store i8 0, ptr %containsLazyNotLoaded_.i10, align 8
  br label %_ZNK8facebook5velox9RowVector27updateContainsLazyNotLoadedEv.exit

for.body:                                         ; preds = %entry, %for.inc
  %__begin2.sroa.0.07 = phi ptr [ %incdec.ptr.i, %for.inc ], [ %0, %entry ]
  %2 = load ptr, ptr %__begin2.sroa.0.07, align 8
  %cmp.i3.not = icmp eq ptr %2, null
  br i1 %cmp.i3.not, label %for.inc, label %if.then

if.then:                                          ; preds = %for.body
  tail call void @_ZN8facebook5velox10BaseVector15prepareForReuseERSt10shared_ptrIS1_Ei(ptr noundef nonnull align 8 dereferenceable(16) %__begin2.sroa.0.07, i32 noundef 0)
  br label %for.inc

for.inc:                                          ; preds = %for.body, %if.then
  %incdec.ptr.i = getelementptr inbounds i8, ptr %__begin2.sroa.0.07, i64 16
  %cmp.i.not = icmp eq ptr %incdec.ptr.i, %1
  br i1 %cmp.i.not, label %for.end, label %for.body

for.end:                                          ; preds = %for.inc
  %.pre = load ptr, ptr %children_, align 8
  %.pre8 = load ptr, ptr %_M_finish.i, align 8
  %childrenLoaded_.i = getelementptr inbounds i8, ptr %this, i64 137
  store i8 0, ptr %childrenLoaded_.i, align 1
  %containsLazyNotLoaded_.i = getelementptr inbounds i8, ptr %this, i64 136
  store i8 0, ptr %containsLazyNotLoaded_.i, align 8
  %cmp.i.not6.i = icmp eq ptr %.pre, %.pre8
  br i1 %cmp.i.not6.i, label %_ZNK8facebook5velox9RowVector27updateContainsLazyNotLoadedEv.exit, label %for.body.i

for.body.i:                                       ; preds = %for.end, %for.inc.i
  %__begin2.sroa.0.07.i = phi ptr [ %incdec.ptr.i.i, %for.inc.i ], [ %.pre, %for.end ]
  %3 = load ptr, ptr %__begin2.sroa.0.07.i, align 8
  %cmp.i3.not.i = icmp eq ptr %3, null
  br i1 %cmp.i3.not.i, label %for.inc.i, label %land.lhs.true.i

land.lhs.true.i:                                  ; preds = %for.body.i
  %call8.i = tail call noundef zeroext i1 @_ZN8facebook5velox15isLazyNotLoadedERKNS0_10BaseVectorE(ptr noundef nonnull align 8 dereferenceable(99) %3)
  br i1 %call8.i, label %if.then.i, label %for.inc.i

if.then.i:                                        ; preds = %land.lhs.true.i
  store i8 1, ptr %containsLazyNotLoaded_.i, align 8
  br label %_ZNK8facebook5velox9RowVector27updateContainsLazyNotLoadedEv.exit

for.inc.i:                                        ; preds = %land.lhs.true.i, %for.body.i
  %incdec.ptr.i.i = getelementptr inbounds i8, ptr %__begin2.sroa.0.07.i, i64 16
  %cmp.i.not.i = icmp eq ptr %incdec.ptr.i.i, %.pre8
  br i1 %cmp.i.not.i, label %_ZNK8facebook5velox9RowVector27updateContainsLazyNotLoadedEv.exit, label %for.body.i

_ZNK8facebook5velox9RowVector27updateContainsLazyNotLoadedEv.exit: ; preds = %for.inc.i, %for.end.thread, %for.end, %if.then.i
  ret void
}